target datalayout = "e-m:e-p270:32:32-p271:32:32-p272:64:64-i64:64-i128:128-f80:128-n8:16:32:64-S128"
target triple = "x86_64-unknown-linux-gnu"

%"class.icu_75::MessageFormat" = type { %"class.icu_75::Format.base", [6 x i8], %"class.icu_75::Locale", %"class.icu_75::MessagePattern", ptr, i32, ptr, i32, i32, i8, ptr, ptr, ptr, ptr, %"class.icu_75::MessageFormat::PluralSelectorProvider", %"class.icu_75::MessageFormat::PluralSelectorProvider" }
%"class.icu_75::Format.base" = type <{ %"class.icu_75::UObject", [157 x i8], [157 x i8] }>
%"class.icu_75::UObject" = type { ptr }
%"class.icu_75::Locale" = type <{ %"class.icu_75::UObject", [12 x i8], [6 x i8], [4 x i8], [2 x i8], i32, [4 x i8], ptr, [157 x i8], [3 x i8], ptr, i8, [7 x i8] }>
%"class.icu_75::MessagePattern" = type <{ %"class.icu_75::UObject", i32, [4 x i8], %"class.icu_75::UnicodeString", ptr, ptr, i32, [4 x i8], ptr, ptr, i32, i8, i8, i8, i8 }>
%"class.icu_75::UnicodeString" = type { %"class.icu_75::Replaceable", %"union.icu_75::UnicodeString::StackBufferOrFields" }
%"class.icu_75::Replaceable" = type { %"class.icu_75::UObject" }
%"union.icu_75::UnicodeString::StackBufferOrFields" = type { %struct.anon.0, [32 x i8] }
%struct.anon.0 = type { i16, i32, i32, ptr }
%"class.icu_75::MessageFormat::PluralSelectorProvider" = type <{ %"class.icu_75::PluralFormat::PluralSelector", ptr, ptr, i32, [4 x i8] }>
%"class.icu_75::PluralFormat::PluralSelector" = type { ptr }
%"class.icu_75::MessagePattern::Part" = type { i32, i32, i16, i16, i32 }

; Function Attrs: mustprogress nounwind uwtable
define linkonce_odr noundef nonnull align 4 dereferenceable(16) ptr @_ZNK6icu_7514MessagePattern7getPartEi(ptr noundef nonnull align 8 dereferenceable(127) %this, i32 noundef %i) #0 comdat align 2 {
entry:
  %this.addr = alloca ptr, align 8
  %i.addr = alloca i32, align 4
  store ptr %this, ptr %this.addr, align 8
  store i32 %i, ptr %i.addr, align 4
  %this1 = load ptr, ptr %this.addr, align 8
  %parts = getelementptr inbounds %"class.icu_75::MessagePattern", ptr %this1, i32 0, i32 5
  %0 = load ptr, ptr %parts, align 8
  %1 = load i32, ptr %i.addr, align 4
  %idxprom = sext i32 %1 to i64
  %arrayidx = getelementptr inbounds %"class.icu_75::MessagePattern::Part", ptr %0, i64 %idxprom
  ret ptr %arrayidx
}

; Function Attrs: mustprogress uwtable
define linkonce_odr noundef i32 @_ZNK6icu_7514MessagePattern11getPartTypeEi(ptr noundef nonnull align 8 dereferenceable(127) %this, i32 noundef %i) #1 comdat align 2 {
entry:
  %this.addr = alloca ptr, align 8
  %i.addr = alloca i32, align 4
  store ptr %this, ptr %this.addr, align 8
  store i32 %i, ptr %i.addr, align 4
  %this1 = load ptr, ptr %this.addr, align 8
  %0 = load i32, ptr %i.addr, align 4
  %call = call noundef nonnull align 4 dereferenceable(16) ptr @_ZNK6icu_7514MessagePattern7getPartEi(ptr noundef nonnull align 8 dereferenceable(127) %this1, i32 noundef %0)
  %type = getelementptr inbounds %"class.icu_75::MessagePattern::Part", ptr %call, i32 0, i32 0
  %1 = load i32, ptr %type, align 4
  ret i32 %1
}

; Function Attrs: mustprogress uwtable
define linkonce_odr noundef i32 @_ZNK6icu_7514MessagePattern17getLimitPartIndexEi(ptr noundef nonnull align 8 dereferenceable(127) %this, i32 noundef %start) #1 comdat align 2 {
entry:
  %retval = alloca i32, align 4
  %this.addr = alloca ptr, align 8
  %start.addr = alloca i32, align 4
  %limit = alloca i32, align 4
  store ptr %this, ptr %this.addr, align 8
  store i32 %start, ptr %start.addr, align 4
  %this1 = load ptr, ptr %this.addr, align 8
  %0 = load i32, ptr %start.addr, align 4
  %call = call noundef nonnull align 4 dereferenceable(16) ptr @_ZNK6icu_7514MessagePattern7getPartEi(ptr noundef nonnull align 8 dereferenceable(127) %this1, i32 noundef %0)
  %limitPartIndex = getelementptr inbounds %"class.icu_75::MessagePattern::Part", ptr %call, i32 0, i32 4
  %1 = load i32, ptr %limitPartIndex, align 4
  store i32 %1, ptr %limit, align 4
  %2 = load i32, ptr %limit, align 4
  %3 = load i32, ptr %start.addr, align 4
  %cmp = icmp slt i32 %2, %3
  br i1 %cmp, label %if.then, label %if.end

if.then:                                          ; preds = %entry
  %4 = load i32, ptr %start.addr, align 4
  store i32 %4, ptr %retval, align 4
  br label %return

if.end:                                           ; preds = %entry
  %5 = load i32, ptr %limit, align 4
  store i32 %5, ptr %retval, align 4
  br label %return

return:                                           ; preds = %if.end, %if.then
  %6 = load i32, ptr %retval, align 4
  ret i32 %6
}

; Function Attrs: mustprogress uwtable
define void @_ZN6icu_7513MessageFormat23setCustomArgStartFormatEiPNS_6FormatER10UErrorCode(ptr noundef nonnull align 8 dereferenceable(816) %this, i32 noundef %argStart, ptr noundef %formatter, ptr noundef nonnull align 4 dereferenceable(4) %status) #1 align 2 {
entry:
  %this.addr = alloca ptr, align 8
  %argStart.addr = alloca i32, align 4
  %formatter.addr = alloca ptr, align 8
  %status.addr = alloca ptr, align 8
  store ptr %this, ptr %this.addr, align 8
  store i32 %argStart, ptr %argStart.addr, align 4
  store ptr %formatter, ptr %formatter.addr, align 8
  store ptr %status, ptr %status.addr, align 8
  %this1 = load ptr, ptr %this.addr, align 8
  %0 = load i32, ptr %argStart.addr, align 4
  %1 = load ptr, ptr %formatter.addr, align 8
  %2 = load ptr, ptr %status.addr, align 8
  call void @_ZN6icu_7513MessageFormat17setArgStartFormatEiPNS_6FormatER10UErrorCode(ptr noundef nonnull align 8 dereferenceable(816) %this1, i32 noundef %0, ptr noundef %1, ptr noundef nonnull align 4 dereferenceable(4) %2)
  %customFormatArgStarts = getelementptr inbounds %"class.icu_75::MessageFormat", ptr %this1, i32 0, i32 13
  %3 = load ptr, ptr %customFormatArgStarts, align 8
  %cmp = icmp eq ptr %3, null
  br i1 %cmp, label %if.then, label %if.end

if.then:                                          ; preds = %entry
  %4 = load ptr, ptr %status.addr, align 8
  %call = call ptr @uhash_open_75(ptr noundef @uhash_hashLong_75, ptr noundef @uhash_compareLong_75, ptr noundef null, ptr noundef %4)
  %customFormatArgStarts2 = getelementptr inbounds %"class.icu_75::MessageFormat", ptr %this1, i32 0, i32 13
  store ptr %call, ptr %customFormatArgStarts2, align 8
  br label %if.end

if.end:                                           ; preds = %if.then, %entry
  %customFormatArgStarts3 = getelementptr inbounds %"class.icu_75::MessageFormat", ptr %this1, i32 0, i32 13
  %5 = load ptr, ptr %customFormatArgStarts3, align 8
  %6 = load i32, ptr %argStart.addr, align 4
  %7 = load ptr, ptr %status.addr, align 8
  %call4 = call i32 @uhash_iputi_75(ptr noundef %5, i32 noundef %6, i32 noundef 1, ptr noundef %7)
  ret void
}

; Function Attrs: mustprogress uwtable
define noundef i32 @_ZNK6icu_7513MessageFormat20nextTopLevelArgStartEi(ptr noundef nonnull align 8 dereferenceable(816) %this, i32 noundef %partIndex) #1 align 2 {
entry:
  %retval = alloca i32, align 4
  %this.addr = alloca ptr, align 8
  %partIndex.addr = alloca i32, align 4
  %type = alloca i32, align 4
  store ptr %this, ptr %this.addr, align 8
  store i32 %partIndex, ptr %partIndex.addr, align 4
  %this1 = load ptr, ptr %this.addr, align 8
  %0 = load i32, ptr %partIndex.addr, align 4
  %cmp = icmp ne i32 %0, 0
  br i1 %cmp, label %if.then, label %if.end

if.then:                                          ; preds = %entry
  %msgPattern = getelementptr inbounds %"class.icu_75::MessageFormat", ptr %this1, i32 0, i32 3
  %1 = load i32, ptr %partIndex.addr, align 4
  %call = call noundef i32 @_ZNK6icu_7514MessagePattern17getLimitPartIndexEi(ptr noundef nonnull align 8 dereferenceable(127) %msgPattern, i32 noundef %1)
  store i32 %call, ptr %partIndex.addr, align 4
  br label %if.end

if.end:                                           ; preds = %if.then, %entry
  br label %for.cond

for.cond:                                         ; preds = %if.end9, %if.end
  %msgPattern2 = getelementptr inbounds %"class.icu_75::MessageFormat", ptr %this1, i32 0, i32 3
  %2 = load i32, ptr %partIndex.addr, align 4
  %inc = add nsw i32 %2, 1
  store i32 %inc, ptr %partIndex.addr, align 4
  %call3 = call noundef i32 @_ZNK6icu_7514MessagePattern11getPartTypeEi(ptr noundef nonnull align 8 dereferenceable(127) %msgPattern2, i32 noundef %inc)
  store i32 %call3, ptr %type, align 4
  %3 = load i32, ptr %type, align 4
  %cmp4 = icmp eq i32 %3, 5
  br i1 %cmp4, label %if.then5, label %if.end6

if.then5:                                         ; preds = %for.cond
  %4 = load i32, ptr %partIndex.addr, align 4
  store i32 %4, ptr %retval, align 4
  br label %return

if.end6:                                          ; preds = %for.cond
  %5 = load i32, ptr %type, align 4
  %cmp7 = icmp eq i32 %5, 1
  br i1 %cmp7, label %if.then8, label %if.end9

if.then8:                                         ; preds = %if.end6
  store i32 -1, ptr %retval, align 4
  br label %return

if.end9:                                          ; preds = %if.end6
  br label %for.cond, !llvm.loop !11

return:                                           ; preds = %if.then8, %if.then5
  %6 = load i32, ptr %retval, align 4
  ret i32 %6
}

; Function Attrs: mustprogress uwtable
define void @_ZN6icu_7513MessageFormat9setFormatEiRKNS_6FormatE(ptr noundef nonnull align 8 dereferenceable(816) %this, i32 noundef %n, ptr noundef nonnull align 8 dereferenceable(322) %newFormat) unnamed_addr #1 align 2 {
entry:
  %this.addr = alloca ptr, align 8
  %n.addr = alloca i32, align 4
  %newFormat.addr = alloca ptr, align 8
  %formatNumber = alloca i32, align 4
  %partIndex = alloca i32, align 4
  %new_format = alloca ptr, align 8
  %status = alloca i32, align 4
  store ptr %this, ptr %this.addr, align 8
  store i32 %n, ptr %n.addr, align 4
  store ptr %newFormat, ptr %newFormat.addr, align 8
  %this1 = load ptr, ptr %this.addr, align 8
  %0 = load i32, ptr %n.addr, align 4
  %cmp = icmp sge i32 %0, 0
  br i1 %cmp, label %if.then, label %if.end8

if.then:                                          ; preds = %entry
  store i32 0, ptr %formatNumber, align 4
  store i32 0, ptr %partIndex, align 4
  br label %for.cond

for.cond:                                         ; preds = %if.end7, %if.then
  %1 = load i32, ptr %partIndex, align 4
  %call = call noundef i32 @_ZNK6icu_7513MessageFormat20nextTopLevelArgStartEi(ptr noundef nonnull align 8 dereferenceable(816) %this1, i32 noundef %1)
  store i32 %call, ptr %partIndex, align 4
  %cmp2 = icmp sge i32 %call, 0
  br i1 %cmp2, label %for.body, label %for.end

for.body:                                         ; preds = %for.cond
  %2 = load i32, ptr %n.addr, align 4
  %3 = load i32, ptr %formatNumber, align 4
  %cmp3 = icmp eq i32 %2, %3
  br i1 %cmp3, label %if.then4, label %if.end7

if.then4:                                         ; preds = %for.body
  %4 = load ptr, ptr %newFormat.addr, align 8
  %vtable = load ptr, ptr %4, align 8
  %vfn = getelementptr inbounds ptr, ptr %vtable, i64 4
  %5 = load ptr, ptr %vfn, align 8
  %call5 = call noundef ptr %5(ptr noundef nonnull align 8 dereferenceable(322) %4)
  store ptr %call5, ptr %new_format, align 8
  %6 = load ptr, ptr %new_format, align 8
  %tobool = icmp ne ptr %6, null
  br i1 %tobool, label %if.then6, label %if.end

if.then6:                                         ; preds = %if.then4
  store i32 0, ptr %status, align 4
  %7 = load i32, ptr %partIndex, align 4
  %8 = load ptr, ptr %new_format, align 8
  call void @_ZN6icu_7513MessageFormat23setCustomArgStartFormatEiPNS_6FormatER10UErrorCode(ptr noundef nonnull align 8 dereferenceable(816) %this1, i32 noundef %7, ptr noundef %8, ptr noundef nonnull align 4 dereferenceable(4) %status)
  br label %if.end

if.end:                                           ; preds = %if.then6, %if.then4
  br label %if.end8

if.end7:                                          ; preds = %for.body
  %9 = load i32, ptr %formatNumber, align 4
  %inc = add nsw i32 %9, 1
  store i32 %inc, ptr %formatNumber, align 4
  br label %for.cond, !llvm.loop !17

for.end:                                          ; preds = %for.cond
  br label %if.end8

if.end8:                                          ; preds = %for.end, %if.end, %entry
  ret void
}