; Function Attrs: mustprogress uwtable
define void @_ZN6icu_7513MessageFormat9setFormatEiRKNS_6FormatE(ptr nocapture noundef nonnull align 8 dereferenceable(816) %this, i32 noundef %n, ptr noundef nonnull align 8 dereferenceable(322) %newFormat) unnamed_addr #1 align 2 {
entry:
  %status = alloca i32, align 4
  %cmp = icmp sgt i32 %n, -1
  br i1 %cmp, label %for.cond.preheader, label %if.end8

for.cond.preheader:                               ; preds = %entry
  %parts.i.i5.phi.trans.insert.i = getelementptr inbounds i8, ptr %this, i64 640
  %.pre.i = load ptr, ptr %parts.i.i5.phi.trans.insert.i, align 8
  br label %for.cond

for.cond:                                         ; preds = %for.body, %for.cond.preheader
  %partIndex.0 = phi i32 [ %3, %for.body ], [ 0, %for.cond.preheader ]
  %formatNumber.0 = phi i32 [ %inc, %for.body ], [ 0, %for.cond.preheader ]
  %cmp.not.i = icmp eq i32 %partIndex.0, 0
  br i1 %cmp.not.i, label %for.cond.i.preheader, label %if.then.i

if.then.i:                                        ; preds = %for.cond
  %idxprom.i.i.i = zext nneg i32 %partIndex.0 to i64
  %limitPartIndex.i.i = getelementptr inbounds %"class.icu_75::MessagePattern::Part", ptr %.pre.i, i64 %idxprom.i.i.i, i32 4
  %0 = load i32, ptr %limitPartIndex.i.i, align 4
  %start..i.i = tail call noundef i32 @llvm.smax.i32(i32 %0, i32 %partIndex.0)
  %1 = zext nneg i32 %start..i.i to i64
  br label %for.cond.i.preheader

for.cond.i.preheader:                             ; preds = %if.then.i, %for.cond
  %indvars.iv.i.ph = phi i64 [ 0, %for.cond ], [ %1, %if.then.i ]
  br label %for.cond.i

for.cond.i:                                       ; preds = %for.cond.i.preheader, %for.cond.i
  %indvars.iv.i = phi i64 [ %indvars.iv.next.i, %for.cond.i ], [ %indvars.iv.i.ph, %for.cond.i.preheader ]
  %indvars.iv.next.i = add nuw nsw i64 %indvars.iv.i, 1
  %arrayidx.i.i.i = getelementptr inbounds %"class.icu_75::MessagePattern::Part", ptr %.pre.i, i64 %indvars.iv.next.i
  %2 = load i32, ptr %arrayidx.i.i.i, align 4
  switch i32 %2, label %for.cond.i [
    i32 5, label %_ZNK6icu_7513MessageFormat20nextTopLevelArgStartEi.exit
    i32 1, label %if.end8
  ]

_ZNK6icu_7513MessageFormat20nextTopLevelArgStartEi.exit: ; preds = %for.cond.i
  %3 = trunc i64 %indvars.iv.next.i to i32
  %cmp2 = icmp sgt i32 %3, -1
  br i1 %cmp2, label %for.body, label %if.end8

for.body:                                         ; preds = %_ZNK6icu_7513MessageFormat20nextTopLevelArgStartEi.exit
  %cmp3 = icmp eq i32 %formatNumber.0, %n
  %inc = add nuw nsw i32 %formatNumber.0, 1
  br i1 %cmp3, label %if.then4, label %for.cond, !llvm.loop !22

if.then4:                                         ; preds = %for.body
  %vtable = load ptr, ptr %newFormat, align 8
  %vfn = getelementptr inbounds i8, ptr %vtable, i64 32
  %4 = load ptr, ptr %vfn, align 8
  %call5 = tail call noundef ptr %4(ptr noundef nonnull align 8 dereferenceable(322) %newFormat)
  %tobool.not = icmp eq ptr %call5, null
  br i1 %tobool.not, label %if.end8, label %if.then6

if.then6:                                         ; preds = %if.then4
  store i32 0, ptr %status, align 4
  call void @_ZN6icu_7513MessageFormat17setArgStartFormatEiPNS_6FormatER10UErrorCode(ptr noundef nonnull align 8 dereferenceable(816) %this, i32 noundef %3, ptr noundef nonnull %call5, ptr noundef nonnull align 4 dereferenceable(4) %status)
  %customFormatArgStarts.i = getelementptr inbounds i8, ptr %this, i64 744
  %5 = load ptr, ptr %customFormatArgStarts.i, align 8
  %cmp.i = icmp eq ptr %5, null
  br i1 %cmp.i, label %if.then.i6, label %_ZN6icu_7513MessageFormat23setCustomArgStartFormatEiPNS_6FormatER10UErrorCode.exit

if.then.i6:                                       ; preds = %if.then6
  %call.i = call ptr @uhash_open_75(ptr noundef nonnull @uhash_hashLong_75, ptr noundef nonnull @uhash_compareLong_75, ptr noundef null, ptr noundef nonnull %status)
  store ptr %call.i, ptr %customFormatArgStarts.i, align 8
  br label %_ZN6icu_7513MessageFormat23setCustomArgStartFormatEiPNS_6FormatER10UErrorCode.exit

_ZN6icu_7513MessageFormat23setCustomArgStartFormatEiPNS_6FormatER10UErrorCode.exit: ; preds = %if.then6, %if.then.i6
  %6 = phi ptr [ %call.i, %if.then.i6 ], [ %5, %if.then6 ]
  %call4.i = call i32 @uhash_iputi_75(ptr noundef %6, i32 noundef %3, i32 noundef 1, ptr noundef nonnull %status)
  br label %if.end8

if.end8:                                          ; preds = %_ZNK6icu_7513MessageFormat20nextTopLevelArgStartEi.exit, %for.cond.i, %if.then4, %_ZN6icu_7513MessageFormat23setCustomArgStartFormatEiPNS_6FormatER10UErrorCode.exit, %entry
  ret void
}